Certificate:
    Data:
        Version: 3 (0x2)
        Serial Number: 4096 (0x1000)
        Signature Algorithm: sha256WithRSAEncryption
        Issuer: C=US, ST=NY, O=Internet Widgits Pty Ltd, CN=slackingveteran.com
        Validity
            Not Before: Apr 21 21:09:39 2020 GMT
            Not After : Apr 21 21:09:39 2021 GMT
        Subject: C=US, ST=NY, O=Internet Widgits Pty Ltd, CN=slackingveteran.com
        Subject Public Key Info:
            Public Key Algorithm: rsaEncryption
                RSA Public-Key: (2048 bit)
                Modulus:
                    00:9a:e7:86:99:5a:e6:47:01:9f:eb:d9:a0:1a:c4:
                    30:7e:24:90:9a:59:7f:9c:28:ef:56:04:77:d6:c7:
                    05:4f:6c:30:ed:84:cf:a5:a3:32:e7:10:ba:30:bc:
                    43:91:1c:53:35:cc:3b:b7:cb:cc:92:cb:16:76:65:
                    87:86:23:3f:80:51:4d:77:5a:0e:a9:6b:9d:28:b4:
                    c1:15:62:dd:d5:a8:a3:73:1b:06:e9:25:df:4f:0d:
                    af:35:16:fc:99:91:66:f0:d1:46:e8:37:71:fa:c3:
                    13:f2:c0:c5:c2:a4:a8:bf:ee:90:8a:e7:c0:74:45:
                    6a:25:67:39:e9:b8:4d:d7:11:72:0d:0e:a3:4b:34:
                    98:4a:ac:f4:4e:db:bb:52:f2:d2:a2:d0:ba:85:2d:
                    62:b8:67:45:8d:08:97:0b:8d:22:cc:a9:e4:61:e4:
                    64:da:d0:d7:97:2b:78:e8:3c:05:df:4e:a2:bd:b7:
                    7a:25:d0:19:db:5f:d5:9e:c3:ae:3e:95:3b:39:0b:
                    d8:36:ee:da:52:96:3a:20:f5:9b:bf:04:49:b0:3e:
                    d6:1c:0c:48:c1:68:21:85:5e:c3:9d:fb:b8:dc:bb:
                    65:86:6a:9b:83:a9:89:d5:60:14:b3:46:6d:1c:ba:
                    d8:83:49:e9:62:d1:72:8c:f0:0f:26:d8:f1:3d:40:
                    3a:ef
                Exponent: 65537 (0x10001)
        X509v3 extensions:
            X509v3 Basic Constraints: 
                CA:FALSE
            Netscape Comment: 
                OpenSSL Generated Certificate
            X509v3 Subject Key Identifier: 
                1A:FC:BB:1F:10:4D:56:C9:3E:7F:2A:5F:F4:94:BB:3E:EF:B7:85:13
            X509v3 Authority Key Identifier: 
                keyid:3C:21:33:96:8A:00:C2:55:6A:6B:89:69:21:4B:E9:DE:FE:CA:7A:74

    Signature Algorithm: sha256WithRSAEncryption
         39:11:f8:6d:cf:1d:64:10:2e:a8:fa:7a:d6:6e:e9:5a:8b:90:
         af:1f:63:98:7c:61:ec:c3:a9:71:fe:80:51:a9:36:c8:58:66:
         79:a5:83:a4:d6:1c:74:aa:5b:bc:57:f1:30:61:d1:58:2f:3a:
         24:c6:53:82:c4:f5:53:b0:6f:7b:f6:d5:15:ea:2a:21:df:bf:
         97:07:2c:91:63:26:d6:4d:38:c7:5e:15:91:13:09:88:8e:86:
         b8:85:2c:64:54:69:bd:37:fd:5e:d1:a4:f8:2f:80:9f:d6:54:
         6b:ff:07:b5:fa:84:69:ea:89:da:12:f9:c7:00:ba:9d:c3:77:
         10:c9:21:42:e9:c8:41:6d:9d:01:53:c2:3d:e8:c3:d3:53:14:
         61:ba:1e:e2:71:9a:4a:25:4e:48:77:b4:79:30:de:3c:b7:c2:
         4a:ac:59:80:f3:38:e4:cb:ef:17:02:78:8a:0b:99:e0:d3:a8:
         a3:7e:8e:09:63:e0:dd:2e:e1:41:92:bd:41:30:ef:a2:6d:67:
         ad:c5:f0:2c:ef:38:f7:e3:2e:57:05:35:8c:06:20:d2:6e:2b:
         3c:24:d2:16:00:37:54:ac:39:2a:cb:e9:79:78:75:41:91:c3:
         4d:48:4e:41:1e:eb:6b:26:87:65:44:44:5d:60:38:10:8d:23:
         db:cb:89:b1:6f:dd:f5:24:ee:21:90:c3:36:92:b2:11:92:5e:
         82:26:19:ed:4f:03:dd:8d:80:3f:d0:4c:fd:7f:7c:ee:fd:78:
         89:f1:df:a0:24:b4:2b:0b:0c:70:de:04:b7:46:bc:8e:0d:2c:
         b1:ed:e9:75:f9:85:6a:7a:7f:b2:6d:c0:aa:47:d6:87:0e:85:
         49:45:cc:bf:a4:7e:77:db:03:4e:f2:a1:75:2f:43:46:2a:56:
         4c:d3:7a:16:a1:23:9b:61:68:98:24:61:a8:aa:8f:1b:dd:58:
         b1:40:14:11:03:04:28:09:13:10:66:26:d9:23:be:40:74:e5:
         00:f3:ca:2b:aa:50:13:09:ba:75:a5:79:91:b6:f5:de:e5:cd:
         cc:69:7a:89:c1:ae:5c:e3:5e:f9:59:55:0b:51:0e:73:2a:42:
         64:81:bb:ad:d0:fc:e1:bd:e1:0c:2f:a4:6e:9c:e6:76:bf:84:
         08:6e:ab:e5:9c:e1:03:bd:ce:50:34:99:89:ce:cb:bc:92:b4:
         5a:05:de:3b:4b:ee:0f:e7:2c:78:4c:24:75:08:bb:ad:f7:3d:
         c3:71:e3:dd:ff:df:17:2b:d3:36:de:bc:b1:8a:55:a3:7a:a3:
         0b:e1:40:b9:e4:3d:43:1a:57:7b:bd:45:ff:a1:69:6c:65:3a:
         df:8e:53:2e:ac:6c:09:1e
-----BEGIN CERTIFICATE-----
MIIErTCCApWgAwIBAgICEAAwDQYJKoZIhvcNAQELBQAwWzELMAkGA1UEBhMCVVMx
CzAJBgNVBAgMAk5ZMSEwHwYDVQQKDBhJbnRlcm5ldCBXaWRnaXRzIFB0eSBMdGQx
HDAaBgNVBAMME3NsYWNraW5ndmV0ZXJhbi5jb20wHhcNMjAwNDIxMjEwOTM5WhcN
MjEwNDIxMjEwOTM5WjBbMQswCQYDVQQGEwJVUzELMAkGA1UECAwCTlkxITAfBgNV
BAoMGEludGVybmV0IFdpZGdpdHMgUHR5IEx0ZDEcMBoGA1UEAwwTc2xhY2tpbmd2
ZXRlcmFuLmNvbTCCASIwDQYJKoZIhvcNAQEBBQADggEPADCCAQoCggEBAJrnhpla
5kcBn+vZoBrEMH4kkJpZf5wo71YEd9bHBU9sMO2Ez6WjMucQujC8Q5EcUzXMO7fL
zJLLFnZlh4YjP4BRTXdaDqlrnSi0wRVi3dWoo3MbBukl308NrzUW/JmRZvDRRug3
cfrDE/LAxcKkqL/ukIrnwHRFaiVnOem4TdcRcg0Oo0s0mEqs9E7bu1Ly0qLQuoUt
YrhnRY0IlwuNIsyp5GHkZNrQ15creOg8Bd9Oor23eiXQGdtf1Z7Drj6VOzkL2Dbu
2lKWOiD1m78ESbA+1hwMSMFoIYVew537uNy7ZYZqm4OpidVgFLNGbRy62INJ6WLR
cozwDybY8T1AOu8CAwEAAaN7MHkwCQYDVR0TBAIwADAsBglghkgBhvhCAQ0EHxYd
T3BlblNTTCBHZW5lcmF0ZWQgQ2VydGlmaWNhdGUwHQYDVR0OBBYEFBr8ux8QTVbJ
Pn8qX/SUuz7vt4UTMB8GA1UdIwQYMBaAFDwhM5aKAMJVamuJaSFL6d7+ynp0MA0G
CSqGSIb3DQEBCwUAA4ICAQA5Efhtzx1kEC6o+nrWbulai5CvH2OYfGHsw6lx/oBR
qTbIWGZ5pYOk1hx0qlu8V/EwYdFYLzokxlOCxPVTsG979tUV6ioh37+XByyRYybW
TTjHXhWREwmIjoa4hSxkVGm9N/1e0aT4L4Cf1lRr/we1+oRp6onaEvnHALqdw3cQ
ySFC6chBbZ0BU8I96MPTUxRhuh7icZpKJU5Id7R5MN48t8JKrFmA8zjky+8XAniK
C5ng06ijfo4JY+DdLuFBkr1BMO+ibWetxfAs7zj34y5XBTWMBiDSbis8JNIWADdU
rDkqy+l5eHVBkcNNSE5BHutrJodlRERdYDgQjSPby4mxb931JO4hkMM2krIRkl6C
JhntTwPdjYA/0Ez9f3zu/XiJ8d+gJLQrCwxw3gS3RryODSyx7el1+YVqen+ybcCq
R9aHDoVJRcy/pH532wNO8qF1L0NGKlZM03oWoSObYWiYJGGoqo8b3VixQBQRAwQo
CRMQZibZI75AdOUA88orqlATCbp1pXmRtvXe5c3MaXqJwa5c4175WVULUQ5zKkJk
gbut0PzhveEML6RunOZ2v4QIbqvlnOEDvc5QNJmJzsu8krRaBd47S+4P5yx4TCR1
CLut9z3DcePd/98XK9M23ryxilWjeqML4UC55D1DGld7vUX/oWlsZTrfjlMurGwJ
Hg==
-----END CERTIFICATE-----
